target datalayout = "e-m:e-p270:32:32-p271:32:32-p272:64:64-i64:64-i128:128-f80:128-n8:16:32:64-S128"
target triple = "x86_64-pc-linux-gnu"

%struct.FilterParams = type { i32, double, ptr, ptr, ptr }

; Function Attrs: nounwind uwtable
define internal void @blend_hardlight_16bit(ptr noundef %0, i64 noundef %1, ptr noundef %2, i64 noundef %3, ptr noundef %4, i64 noundef %5, i64 noundef %6, i64 noundef %7, ptr noundef %8, ptr noundef %9) #0 {
  %11 = alloca ptr, align 8
  %12 = alloca i64, align 8
  %13 = alloca ptr, align 8
  %14 = alloca i64, align 8
  %15 = alloca ptr, align 8
  %16 = alloca i64, align 8
  %17 = alloca i64, align 8
  %18 = alloca i64, align 8
  %19 = alloca ptr, align 8
  %20 = alloca ptr, align 8
  %21 = alloca ptr, align 8
  %22 = alloca ptr, align 8
  %23 = alloca ptr, align 8
  %24 = alloca float, align 4
  %25 = alloca i32, align 4
  %26 = alloca i32, align 4
  %27 = alloca i32, align 4
  store ptr %0, ptr %11, align 8, !tbaa !46
  store i64 %1, ptr %12, align 8, !tbaa !88
  store ptr %2, ptr %13, align 8, !tbaa !46
  store i64 %3, ptr %14, align 8, !tbaa !88
  store ptr %4, ptr %15, align 8, !tbaa !46
  store i64 %5, ptr %16, align 8, !tbaa !88
  store i64 %6, ptr %17, align 8, !tbaa !88
  store i64 %7, ptr %18, align 8, !tbaa !88
  store ptr %8, ptr %19, align 8, !tbaa !77
  store ptr %9, ptr %20, align 8, !tbaa !89
  call void @llvm.lifetime.start.p0(i64 8, ptr %21) #12
  %28 = load ptr, ptr %11, align 8, !tbaa !46
  store ptr %28, ptr %21, align 8, !tbaa !103
  call void @llvm.lifetime.start.p0(i64 8, ptr %22) #12
  %29 = load ptr, ptr %13, align 8, !tbaa !46
  store ptr %29, ptr %22, align 8, !tbaa !103
  call void @llvm.lifetime.start.p0(i64 8, ptr %23) #12
  %30 = load ptr, ptr %15, align 8, !tbaa !46
  store ptr %30, ptr %23, align 8, !tbaa !103
  call void @llvm.lifetime.start.p0(i64 4, ptr %24) #12
  %31 = load ptr, ptr %19, align 8, !tbaa !77
  %32 = getelementptr inbounds nuw %struct.FilterParams, ptr %31, i32 0, i32 1
  %33 = load double, ptr %32, align 8, !tbaa !82
  %34 = fptrunc nsz double %33 to float
  store float %34, ptr %24, align 4, !tbaa !99
  %35 = load i64, ptr %16, align 8, !tbaa !88
  %36 = udiv i64 %35, 2
  store i64 %36, ptr %16, align 8, !tbaa !88
  %37 = load i64, ptr %12, align 8, !tbaa !88
  %38 = udiv i64 %37, 2
  store i64 %38, ptr %12, align 8, !tbaa !88
  %39 = load i64, ptr %14, align 8, !tbaa !88
  %40 = udiv i64 %39, 2
  store i64 %40, ptr %14, align 8, !tbaa !88
  call void @llvm.lifetime.start.p0(i64 4, ptr %25) #12
  store i32 0, ptr %25, align 4, !tbaa !37
  br label %41

41:                                               ; preds = %134, %10
  %42 = load i32, ptr %25, align 4, !tbaa !37
  %43 = sext i32 %42 to i64
  %44 = load i64, ptr %18, align 8, !tbaa !88
  %45 = icmp slt i64 %43, %44
  br i1 %45, label %47, label %46

46:                                               ; preds = %41
  store i32 2, ptr %26, align 4
  call void @llvm.lifetime.end.p0(i64 4, ptr %25) #12
  br label %137

47:                                               ; preds = %41
  call void @llvm.lifetime.start.p0(i64 4, ptr %27) #12
  store i32 0, ptr %27, align 4, !tbaa !37
  br label %48

48:                                               ; preds = %121, %47
  %49 = load i32, ptr %27, align 4, !tbaa !37
  %50 = sext i32 %49 to i64
  %51 = load i64, ptr %17, align 8, !tbaa !88
  %52 = icmp slt i64 %50, %51
  br i1 %52, label %54, label %53

53:                                               ; preds = %48
  store i32 5, ptr %26, align 4
  call void @llvm.lifetime.end.p0(i64 4, ptr %27) #12
  br label %124

54:                                               ; preds = %48
  %55 = load ptr, ptr %21, align 8, !tbaa !103
  %56 = load i32, ptr %27, align 4, !tbaa !37
  %57 = sext i32 %56 to i64
  %58 = getelementptr inbounds i16, ptr %55, i64 %57
  %59 = load i16, ptr %58, align 2, !tbaa !105
  %60 = zext i16 %59 to i32
  %61 = sitofp i32 %60 to float
  %62 = load ptr, ptr %22, align 8, !tbaa !103
  %63 = load i32, ptr %27, align 4, !tbaa !37
  %64 = sext i32 %63 to i64
  %65 = getelementptr inbounds i16, ptr %62, i64 %64
  %66 = load i16, ptr %65, align 2, !tbaa !105
  %67 = zext i16 %66 to i32
  %68 = icmp slt i32 %67, 32768
  br i1 %68, label %69, label %85

69:                                               ; preds = %54
  %70 = load ptr, ptr %22, align 8, !tbaa !103
  %71 = load i32, ptr %27, align 4, !tbaa !37
  %72 = sext i32 %71 to i64
  %73 = getelementptr inbounds i16, ptr %70, i64 %72
  %74 = load i16, ptr %73, align 2, !tbaa !105
  %75 = zext i16 %74 to i32
  %76 = load ptr, ptr %21, align 8, !tbaa !103
  %77 = load i32, ptr %27, align 4, !tbaa !37
  %78 = sext i32 %77 to i64
  %79 = getelementptr inbounds i16, ptr %76, i64 %78
  %80 = load i16, ptr %79, align 2, !tbaa !105
  %81 = zext i16 %80 to i32
  %82 = mul nsw i32 %75, %81
  %83 = sdiv i32 %82, 65535
  %84 = mul nsw i32 2, %83
  br label %104

85:                                               ; preds = %54
  %86 = load ptr, ptr %22, align 8, !tbaa !103
  %87 = load i32, ptr %27, align 4, !tbaa !37
  %88 = sext i32 %87 to i64
  %89 = getelementptr inbounds i16, ptr %86, i64 %88
  %90 = load i16, ptr %89, align 2, !tbaa !105
  %91 = zext i16 %90 to i32
  %92 = sub nsw i32 65535, %91
  %93 = load ptr, ptr %21, align 8, !tbaa !103
  %94 = load i32, ptr %27, align 4, !tbaa !37
  %95 = sext i32 %94 to i64
  %96 = getelementptr inbounds i16, ptr %93, i64 %95
  %97 = load i16, ptr %96, align 2, !tbaa !105
  %98 = zext i16 %97 to i32
  %99 = sub nsw i32 65535, %98
  %100 = mul nsw i32 %92, %99
  %101 = sdiv i32 %100, 65535
  %102 = mul nsw i32 2, %101
  %103 = sub nsw i32 65535, %102
  br label %104

104:                                              ; preds = %85, %69
  %105 = phi i32 [ %84, %69 ], [ %103, %85 ]
  %106 = load ptr, ptr %21, align 8, !tbaa !103
  %107 = load i32, ptr %27, align 4, !tbaa !37
  %108 = sext i32 %107 to i64
  %109 = getelementptr inbounds i16, ptr %106, i64 %108
  %110 = load i16, ptr %109, align 2, !tbaa !105
  %111 = zext i16 %110 to i32
  %112 = sub nsw i32 %105, %111
  %113 = sitofp i32 %112 to float
  %114 = load float, ptr %24, align 4, !tbaa !99
  %115 = call nsz float @llvm.fmuladd.f32(float %113, float %114, float %61)
  %116 = fptoui float %115 to i16
  %117 = load ptr, ptr %23, align 8, !tbaa !103
  %118 = load i32, ptr %27, align 4, !tbaa !37
  %119 = sext i32 %118 to i64
  %120 = getelementptr inbounds i16, ptr %117, i64 %119
  store i16 %116, ptr %120, align 2, !tbaa !105
  br label %121

121:                                              ; preds = %104
  %122 = load i32, ptr %27, align 4, !tbaa !37
  %123 = add nsw i32 %122, 1
  store i32 %123, ptr %27, align 4, !tbaa !37
  br label %48, !llvm.loop !534

124:                                              ; preds = %53
  %125 = load i64, ptr %16, align 8, !tbaa !88
  %126 = load ptr, ptr %23, align 8, !tbaa !103
  %127 = getelementptr inbounds i16, ptr %126, i64 %125
  store ptr %127, ptr %23, align 8, !tbaa !103
  %128 = load i64, ptr %12, align 8, !tbaa !88
  %129 = load ptr, ptr %21, align 8, !tbaa !103
  %130 = getelementptr inbounds i16, ptr %129, i64 %128
  store ptr %130, ptr %21, align 8, !tbaa !103
  %131 = load i64, ptr %14, align 8, !tbaa !88
  %132 = load ptr, ptr %22, align 8, !tbaa !103
  %133 = getelementptr inbounds i16, ptr %132, i64 %131
  store ptr %133, ptr %22, align 8, !tbaa !103
  br label %134

134:                                              ; preds = %124
  %135 = load i32, ptr %25, align 4, !tbaa !37
  %136 = add nsw i32 %135, 1
  store i32 %136, ptr %25, align 4, !tbaa !37
  br label %41, !llvm.loop !535

137:                                              ; preds = %46
  call void @llvm.lifetime.end.p0(i64 4, ptr %24) #12
  call void @llvm.lifetime.end.p0(i64 8, ptr %23) #12
  call void @llvm.lifetime.end.p0(i64 8, ptr %22) #12
  call void @llvm.lifetime.end.p0(i64 8, ptr %21) #12
  ret void
}