; Function Attrs: nofree norecurse nosync nounwind memory(argmem: readwrite) uwtable
define internal void @blend_hardlight_16bit(ptr noundef readonly captures(none) %0, i64 noundef %1, ptr noundef readonly captures(none) %2, i64 noundef %3, ptr noundef writeonly captures(none) %4, i64 noundef %5, i64 noundef %6, i64 noundef %7, ptr noundef readonly captures(none) %8, ptr readnone captures(none) %9) #6 {
  %11 = getelementptr inbounds nuw i8, ptr %8, i64 8
  %12 = load double, ptr %11, align 8, !tbaa !70
  %13 = fptrunc nsz double %12 to float
  %14 = lshr i64 %5, 1
  %15 = lshr i64 %1, 1
  %16 = lshr i64 %3, 1
  %17 = icmp sgt i64 %7, 0
  %18 = icmp sgt i64 %6, 0
  %or.cond = and i1 %17, %18
  br i1 %or.cond, label %.preheader.us, label %._crit_edge46

.preheader.us:                                    ; preds = %10, %._crit_edge.us
  %indvars.iv50 = phi i64 [ %indvars.iv.next51, %._crit_edge.us ], [ 0, %10 ]
  %.03644.us = phi ptr [ %46, %._crit_edge.us ], [ %4, %10 ]
  %.03743.us = phi ptr [ %48, %._crit_edge.us ], [ %2, %10 ]
  %.03842.us = phi ptr [ %47, %._crit_edge.us ], [ %0, %10 ]
  br label %19

19:                                               ; preds = %.preheader.us, %39
  %indvars.iv = phi i64 [ 0, %.preheader.us ], [ %indvars.iv.next, %39 ]
  %20 = getelementptr inbounds nuw i16, ptr %.03842.us, i64 %indvars.iv
  %21 = load i16, ptr %20, align 2, !tbaa !85
  %22 = zext i16 %21 to i32
  %23 = uitofp i16 %21 to float
  %24 = getelementptr inbounds nuw i16, ptr %.03743.us, i64 %indvars.iv
  %25 = load i16, ptr %24, align 2, !tbaa !85
  %26 = zext i16 %25 to i32
  %27 = icmp sgt i16 %25, -1
  br i1 %27, label %35, label %28

28:                                               ; preds = %19
  %29 = xor i32 %26, 65535
  %30 = xor i32 %22, 65535
  %31 = mul nuw nsw i32 %29, %30
  %32 = udiv i32 %31, 65535
  %33 = shl nuw nsw i32 %32, 1
  %34 = sub nuw nsw i32 65535, %33
  br label %39

35:                                               ; preds = %19
  %36 = mul nuw nsw i32 %26, %22
  %37 = udiv i32 %36, 65535
  %38 = shl nuw nsw i32 %37, 1
  br label %39

39:                                               ; preds = %35, %28
  %40 = phi i32 [ %38, %35 ], [ %34, %28 ]
  %41 = sub nsw i32 %40, %22
  %42 = sitofp i32 %41 to float
  %43 = tail call nsz float @llvm.fmuladd.f32(float %42, float %13, float %23)
  %44 = fptoui float %43 to i16
  %45 = getelementptr inbounds nuw i16, ptr %.03644.us, i64 %indvars.iv
  store i16 %44, ptr %45, align 2, !tbaa !85
  %indvars.iv.next = add nuw nsw i64 %indvars.iv, 1
  %exitcond.not = icmp eq i64 %indvars.iv.next, %6
  br i1 %exitcond.not, label %._crit_edge.us, label %19, !llvm.loop !514

._crit_edge.us:                                   ; preds = %39
  %46 = getelementptr inbounds nuw i16, ptr %.03644.us, i64 %14
  %47 = getelementptr inbounds nuw i16, ptr %.03842.us, i64 %15
  %48 = getelementptr inbounds nuw i16, ptr %.03743.us, i64 %16
  %indvars.iv.next51 = add nuw nsw i64 %indvars.iv50, 1
  %exitcond53.not = icmp eq i64 %indvars.iv.next51, %7
  br i1 %exitcond53.not, label %._crit_edge46, label %.preheader.us, !llvm.loop !515

._crit_edge46:                                    ; preds = %._crit_edge.us, %10
  ret void
}